((dp1
I2
ccopy_reg
_reconstructor
p2
(cmeeplib
Thread
p3
c__builtin__
object
p4
NtRp5
(dp6
S'posts'
p7
(dp8
I0
g2
(cmeeplib
Message
p9
g4
NtRp10
(dp11
S'post'
p12
S'This is my message!'
p13
sS'id'
p14
I0
sS'author'
p15
g2
(cmeeplib
User
p16
g4
NtRp17
(dp18
S'username'
p19
S'test'
p20
sS'password'
p21
S'foo'
p22
sg14
I2
sbsbsI1
g2
(g9
g4
NtRp23
(dp24
g12
S'Kittens are pretty awesome'
p25
sg14
I1
sg15
g2
(g16
g4
NtRp26
(dp27
g19
S'test'
p28
sg21
S'foo'
p29
sg14
I7
sbsbssg14
I2
sS'title'
p30
S'Test Thread'
p31
sbsI3
g2
(g3
g4
NtRp32
(dp33
g7
(dp34
I0
g2
(g9
g4
NtRp35
(dp36
g12
S'this is my message'
p37
sg14
I0
sg15
g2
(g16
g4
NtRp38
(dp39
g19
S'test'
p40
sg21
S'foo'
p41
sg14
I4
sbsbsI1
g2
(g9
g4
NtRp42
(dp43
g12
S'coooooool'
p44
sg14
I1
sg15
g2
(g16
g4
NtRp45
(dp46
g19
S'blah'
p47
sg21
S'blah'
p48
sg14
I3
sbsbssg14
I3
sg30
S'test title FOO'
p49
sbsI4
g2
(g3
g4
NtRp50
(dp51
g7
(dp52
I0
g2
(g9
g4
NtRp53
(dp54
g12
S'KITTENS!'
p55
sg14
I0
sg15
g26
sbssg14
I4
sg30
S'foo'
p56
sbsI5
g2
(g3
g4
NtRp57
(dp58
g7
(dp59
I0
g2
(g9
g4
NtRp60
(dp61
g12
S'this is my message'
p62
sg14
I0
sg15
g2
(g16
g4
NtRp63
(dp64
g19
S'test'
p65
sg21
S'foo'
p66
sg14
I8
sbsbssg14
I5
sg30
S'test title FOO'
p67
sbsI6
g2
(g3
g4
NtRp68
(dp69
g7
(dp70
I0
g2
(g9
g4
NtRp71
(dp72
g12
S'This is my message!'
p73
sg14
I0
sg15
g2
(g16
g4
NtRp74
(dp75
g19
S'test'
p76
sg21
S'foo'
p77
sg14
I14
sbsbssg14
I6
sg30
S'Test Thread'
p78
sbsI7
g2
(g3
g4
NtRp79
(dp80
g7
(dp81
I0
g2
(g9
g4
NtRp82
(dp83
g12
S'RIGHT HERE'
p84
sg14
I0
sg15
g45
sbssg14
I7
sg30
S'Adding things'
p85
sbs(dp86
I0
g2
(g16
g4
NtRp87
(dp88
g19
S'blah'
p89
sg21
S'blah'
p90
sg14
I0
sbsI1
g2
(g16
g4
NtRp91
(dp92
g19
S'test'
p93
sg21
S'foo'
p94
sg14
I1
sbsI2
g17
sI3
g45
sI4
g38
sI5
g2
(g16
g4
NtRp95
(dp96
g19
S'ilovekittens'
p97
sg21
S'password'
p98
sg14
I5
sbsI6
g2
(g16
g4
NtRp99
(dp100
g19
S'test'
p101
sg21
S'foo'
p102
sg14
I6
sbsI7
g26
sI8
g63
sI9
g2
(g16
g4
NtRp103
(dp104
g19
S'test'
p105
sg21
S'foo'
p106
sg14
I9
sbsI10
g2
(g16
g4
NtRp107
(dp108
g19
S'test'
p109
sg21
S'foo'
p110
sg14
I10
sbsI11
g2
(g16
g4
NtRp111
(dp112
g19
S'test'
p113
sg21
S'foo'
p114
sg14
I11
sbsI12
g2
(g16
g4
NtRp115
(dp116
g19
S'test'
p117
sg21
S'foo'
p118
sg14
I12
sbsI13
g2
(g16
g4
NtRp119
(dp120
g19
S'test'
p121
sg21
S'foo'
p122
sg14
I13
sbsI14
g74
s(dp123
g93
g74
sg89
g45
sg97
g95
stp124
.