((dp1
I2
ccopy_reg
_reconstructor
p2
(cmeeplib
Thread
p3
c__builtin__
object
p4
NtRp5
(dp6
S'posts'
p7
(dp8
I0
g2
(cmeeplib
Message
p9
g4
NtRp10
(dp11
S'post'
p12
S'This is my message!'
p13
sS'id'
p14
I0
sS'author'
p15
g2
(cmeeplib
User
p16
g4
NtRp17
(dp18
S'username'
p19
S'test'
p20
sS'password'
p21
S'foo'
p22
sg14
I2
sbsbsI1
g2
(g9
g4
NtRp23
(dp24
g12
S'Kittens are pretty awesome'
p25
sg14
I1
sg15
g2
(g16
g4
NtRp26
(dp27
g19
S'test'
p28
sg21
S'foo'
p29
sg14
I7
sbsbssg14
I2
sS'title'
p30
S'Test Thread'
p31
sbsI3
g2
(g3
g4
NtRp32
(dp33
g7
(dp34
I0
g2
(g9
g4
NtRp35
(dp36
g12
S'this is my message'
p37
sg14
I0
sg15
g2
(g16
g4
NtRp38
(dp39
g19
S'test'
p40
sg21
S'foo'
p41
sg14
I4
sbsbssg14
I3
sg30
S'test title FOO'
p42
sbsI4
g2
(g3
g4
NtRp43
(dp44
g7
(dp45
I0
g2
(g9
g4
NtRp46
(dp47
g12
S'KITTENS!'
p48
sg14
I0
sg15
g26
sbssg14
I4
sg30
S'foo'
p49
sbsI5
g2
(g3
g4
NtRp50
(dp51
g7
(dp52
I0
g2
(g9
g4
NtRp53
(dp54
g12
S'this is my message'
p55
sg14
I0
sg15
g2
(g16
g4
NtRp56
(dp57
g19
S'test'
p58
sg21
S'foo'
p59
sg14
I8
sbsbssg14
I5
sg30
S'test title FOO'
p60
sbs(dp61
I0
g2
(g16
g4
NtRp62
(dp63
g19
S'blah'
p64
sg21
S'blah'
p65
sg14
I0
sbsI1
g2
(g16
g4
NtRp66
(dp67
g19
S'test'
p68
sg21
S'foo'
p69
sg14
I1
sbsI2
g17
sI3
g2
(g16
g4
NtRp70
(dp71
g19
S'blah'
p72
sg21
S'blah'
p73
sg14
I3
sbsI4
g38
sI5
g2
(g16
g4
NtRp74
(dp75
g19
S'ilovekittens'
p76
sg21
S'password'
p77
sg14
I5
sbsI6
g2
(g16
g4
NtRp78
(dp79
g19
S'test'
p80
sg21
S'foo'
p81
sg14
I6
sbsI7
g26
sI8
g56
sI9
g2
(g16
g4
NtRp82
(dp83
g19
S'test'
p84
sg21
S'foo'
p85
sg14
I9
sbsI10
g2
(g16
g4
NtRp86
(dp87
g19
S'test'
p88
sg21
S'foo'
p89
sg14
I10
sbsI11
g2
(g16
g4
NtRp90
(dp91
g19
S'test'
p92
sg21
S'foo'
p93
sg14
I11
sbsI12
g2
(g16
g4
NtRp94
(dp95
g19
S'test'
p96
sg21
S'foo'
p97
sg14
I12
sbsI13
g2
(g16
g4
NtRp98
(dp99
g19
S'test'
p100
sg21
S'foo'
p101
sg14
I13
sbs(dp102
g68
g98
sg64
g70
sg76
g74
stp103
.