((dp1
I0
ccopy_reg
_reconstructor
p2
(cmeeplib
Thread
p3
c__builtin__
object
p4
NtRp5
(dp6
S'posts'
p7
(dp8
I0
g2
(cmeeplib
Message
p9
g4
NtRp10
(dp11
S'post'
p12
S'da'
p13
sS'id'
p14
I0
sS'author'
p15
g2
(cmeeplib
User
p16
g4
NtRp17
(dp18
S'username'
p19
S'blah'
p20
sS'password'
p21
S'blah'
p22
sg14
I0
sbsbssg14
I0
sS'title'
p23
S'ta'
p24
sbs(dp25
I0
g17
s(dp26
g20
g17
stp27
.