((dp1
I0
ccopy_reg
_reconstructor
p2
(cmeeplib
Thread
p3
c__builtin__
object
p4
NtRp5
(dp6
S'posts'
p7
(dp8
I0
g2
(cmeeplib
Message
p9
g4
NtRp10
(dp11
S'post'
p12
S'this is my message'
p13
sS'id'
p14
I0
sS'author'
p15
g2
(cmeeplib
User
p16
g4
NtRp17
(dp18
S'username'
p19
S'test'
p20
sS'password'
p21
S'foo'
p22
sg14
I84
sbsbsI1
g2
(g9
g4
NtRp23
(dp24
g12
S'Kittens are pretty awesome'
p25
sg14
I1
sg15
g2
(g16
g4
NtRp26
(dp27
g19
S'test'
p28
sg21
S'foo'
p29
sg14
I87
sbsbsI2
g2
(g9
g4
NtRp30
(dp31
g12
S'Kittens are pretty awesome'
p32
sg14
I2
sg15
g2
(g16
g4
NtRp33
(dp34
g19
S'test'
p35
sg21
S'foo'
p36
sg14
I92
sbsbsI3
g2
(g9
g4
NtRp37
(dp38
g12
S'Kittens are pretty awesome'
p39
sg14
I3
sg15
g2
(g16
g4
NtRp40
(dp41
g19
S'test'
p42
sg21
S'foo'
p43
sg14
I97
sbsbsI4
g2
(g9
g4
NtRp44
(dp45
g12
S'Kittens are pretty awesome'
p46
sg14
I4
sg15
g2
(g16
g4
NtRp47
(dp48
g19
S'test'
p49
sg21
S'foo'
p50
sg14
I102
sbsbsI5
g2
(g9
g4
NtRp51
(dp52
g12
S'Kittens are pretty awesome'
p53
sg14
I5
sg15
g2
(g16
g4
NtRp54
(dp55
g19
S'test'
p56
sg21
S'foo'
p57
sg14
I107
sbsbsI6
g2
(g9
g4
NtRp58
(dp59
g12
S'Kittens are pretty awesome'
p60
sg14
I6
sg15
g2
(g16
g4
NtRp61
(dp62
g19
S'test'
p63
sg21
S'foo'
p64
sg14
I114
sbsbsI7
g2
(g9
g4
NtRp65
(dp66
g12
S'Kittens are pretty awesome'
p67
sg14
I7
sg15
g2
(g16
g4
NtRp68
(dp69
g19
S'test'
p70
sg21
S'foo'
p71
sg14
I119
sbsbssg14
I0
sS'title'
p72
S'test title FOO'
p73
sbsI1
g2
(g3
g4
NtRp74
(dp75
g7
(dp76
I0
g2
(g9
g4
NtRp77
(dp78
g12
S'KITTENS!'
p79
sg14
I0
sg15
g26
sbsI1
g2
(g9
g4
NtRp80
(dp81
g12
S'YAY KITTENS'
p82
sg14
I1
sg15
g2
(g16
g4
NtRp83
(dp84
g19
S'test'
p85
sg21
S'foo'
p86
sg14
I88
sbsbssg14
I1
sg72
S'foo'
p87
sbsI2
g2
(g3
g4
NtRp88
(dp89
g7
(dp90
I0
g2
(g9
g4
NtRp91
(dp92
g12
S'this is my message'
p93
sg14
I0
sg15
g2
(g16
g4
NtRp94
(dp95
g19
S'test'
p96
sg21
S'foo'
p97
sg14
I89
sbsbssg14
I2
sg72
S'test title FOO'
p98
sbsI3
g2
(g3
g4
NtRp99
(dp100
g7
(dp101
I0
g2
(g9
g4
NtRp102
(dp103
g12
S'KITTENS!'
p104
sg14
I0
sg15
g33
sbssg14
I3
sg72
S'foo'
p105
sbsI4
g2
(g3
g4
NtRp106
(dp107
g7
(dp108
I0
g2
(g9
g4
NtRp109
(dp110
g12
S'this is my message'
p111
sg14
I0
sg15
g2
(g16
g4
NtRp112
(dp113
g19
S'test'
p114
sg21
S'foo'
p115
sg14
I94
sbsbssg14
I4
sg72
S'test title FOO'
p116
sbsI5
g2
(g3
g4
NtRp117
(dp118
g7
(dp119
I0
g2
(g9
g4
NtRp120
(dp121
g12
S'KITTENS!'
p122
sg14
I0
sg15
g40
sbssg14
I5
sg72
S'foo'
p123
sbsI6
g2
(g3
g4
NtRp124
(dp125
g7
(dp126
I0
g2
(g9
g4
NtRp127
(dp128
g12
S'this is my message'
p129
sg14
I0
sg15
g2
(g16
g4
NtRp130
(dp131
g19
S'test'
p132
sg21
S'foo'
p133
sg14
I99
sbsbssg14
I6
sg72
S'test title FOO'
p134
sbsI7
g2
(g3
g4
NtRp135
(dp136
g7
(dp137
I0
g2
(g9
g4
NtRp138
(dp139
g12
S'KITTENS!'
p140
sg14
I0
sg15
g47
sbssg14
I7
sg72
S'foo'
p141
sbsI8
g2
(g3
g4
NtRp142
(dp143
g7
(dp144
I0
g2
(g9
g4
NtRp145
(dp146
g12
S'this is my message'
p147
sg14
I0
sg15
g2
(g16
g4
NtRp148
(dp149
g19
S'test'
p150
sg21
S'foo'
p151
sg14
I104
sbsbssg14
I8
sg72
S'test title FOO'
p152
sbsI9
g2
(g3
g4
NtRp153
(dp154
g7
(dp155
I0
g2
(g9
g4
NtRp156
(dp157
g12
S'KITTENS!'
p158
sg14
I0
sg15
g54
sbssg14
I9
sg72
S'foo'
p159
sbsI10
g2
(g3
g4
NtRp160
(dp161
g7
(dp162
I0
g2
(g9
g4
NtRp163
(dp164
g12
S'this is my message'
p165
sg14
I0
sg15
g2
(g16
g4
NtRp166
(dp167
g19
S'test'
p168
sg21
S'foo'
p169
sg14
I109
sbsbssg14
I10
sg72
S'test title FOO'
p170
sbsI11
g2
(g3
g4
NtRp171
(dp172
g7
(dp173
I0
g2
(g9
g4
NtRp174
(dp175
g12
S'this is my message'
p176
sg14
I0
sg15
g2
(g16
g4
NtRp177
(dp178
g19
S'test'
p179
sg21
S'foo'
p180
sg14
I110
sbsbssg14
I11
sg72
S'test title FOO'
p181
sbsI12
g2
(g3
g4
NtRp182
(dp183
g7
(dp184
I0
g2
(g9
g4
NtRp185
(dp186
g12
S'this is my message'
p187
sg14
I0
sg15
g2
(g16
g4
NtRp188
(dp189
g19
S'test'
p190
sg21
S'foo'
p191
sg14
I111
sbsbssg14
I12
sg72
S'test title FOO'
p192
sbsI13
g2
(g3
g4
NtRp193
(dp194
g7
(dp195
I0
g2
(g9
g4
NtRp196
(dp197
g12
S'KITTENS!'
p198
sg14
I0
sg15
g61
sbssg14
I13
sg72
S'foo'
p199
sbsI14
g2
(g3
g4
NtRp200
(dp201
g7
(dp202
I0
g2
(g9
g4
NtRp203
(dp204
g12
S'this is my message'
p205
sg14
I0
sg15
g2
(g16
g4
NtRp206
(dp207
g19
S'test'
p208
sg21
S'foo'
p209
sg14
I116
sbsbssg14
I14
sg72
S'test title FOO'
p210
sbsI15
g2
(g3
g4
NtRp211
(dp212
g7
(dp213
I0
g2
(g9
g4
NtRp214
(dp215
g12
S'KITTENS!'
p216
sg14
I0
sg15
g68
sbssg14
I15
sg72
S'foo'
p217
sbsI16
g2
(g3
g4
NtRp218
(dp219
g7
(dp220
I0
g2
(g9
g4
NtRp221
(dp222
g12
S'this is my message'
p223
sg14
I0
sg15
g2
(g16
g4
NtRp224
(dp225
g19
S'test'
p226
sg21
S'foo'
p227
sg14
I120
sbsbssg14
I16
sg72
S'test title FOO'
p228
sbsI17
g2
(g3
g4
NtRp229
(dp230
g7
(dp231
I0
g2
(g9
g4
NtRp232
(dp233
g12
S'this is my message'
p234
sg14
I0
sg15
g2
(g16
g4
NtRp235
(dp236
g19
S'test'
p237
sg21
S'foo'
p238
sg14
I121
sbsbssg14
I17
sg72
S'test title FOO'
p239
sbsI18
g2
(g3
g4
NtRp240
(dp241
g7
(dp242
I0
g2
(g9
g4
NtRp243
(dp244
g12
S'this is my message'
p245
sg14
I0
sg15
g2
(g16
g4
NtRp246
(dp247
g19
S'test'
p248
sg21
S'foo'
p249
sg14
I122
sbsbssg14
I18
sg72
S'test title FOO'
p250
sbsI19
g2
(g3
g4
NtRp251
(dp252
g7
(dp253
I0
g2
(g9
g4
NtRp254
(dp255
g12
S'this is my message'
p256
sg14
I0
sg15
g2
(g16
g4
NtRp257
(dp258
g19
S'test'
p259
sg21
S'foo'
p260
sg14
I123
sbsbssg14
I19
sg72
S'test title FOO'
p261
sbsI20
g2
(g3
g4
NtRp262
(dp263
g7
(dp264
I0
g2
(g9
g4
NtRp265
(dp266
g12
S'This is my message!'
p267
sg14
I0
sg15
g2
(g16
g4
NtRp268
(dp269
g19
S'test'
p270
sg21
S'foo'
p271
sg14
I124
sbsbssg14
I20
sg72
S'Test Thread'
p272
sbsI21
g2
(g3
g4
NtRp273
(dp274
g7
(dp275
I0
g2
(g9
g4
NtRp276
(dp277
g12
S'test message'
p278
sg14
I0
sg15
g268
sbssg14
I21
sg72
S'test title'
p279
sbs(dp280
I0
g2
(g16
g4
NtRp281
(dp282
g19
S'test'
p283
sg21
S'foo'
p284
sg14
I0
sbsI1
g2
(g16
g4
NtRp285
(dp286
g19
S'teet'
p287
sg21
S'test'
p288
sg14
I1
sbsI2
g2
(g16
g4
NtRp289
(dp290
g19
S'test'
p291
sg21
S'foo'
p292
sg14
I2
sbsI3
g2
(g16
g4
NtRp293
(dp294
g19
S'test'
p295
sg21
S'foo'
p296
sg14
I3
sbsI4
g2
(g16
g4
NtRp297
(dp298
g19
S'test'
p299
sg21
S'foo'
p300
sg14
I4
sbsI5
g2
(g16
g4
NtRp301
(dp302
g19
S'george'
p303
sg21
S'foo'
p304
sg14
I5
sbsI6
g2
(g16
g4
NtRp305
(dp306
g19
S'test'
p307
sg21
S'foo'
p308
sg14
I6
sbsI7
g2
(g16
g4
NtRp309
(dp310
g19
S'test'
p311
sg21
S'foo'
p312
sg14
I7
sbsI8
g2
(g16
g4
NtRp313
(dp314
g19
S'test'
p315
sg21
S'foo'
p316
sg14
I8
sbsI9
g2
(g16
g4
NtRp317
(dp318
g19
S'test'
p319
sg21
S'foo'
p320
sg14
I9
sbsI10
g2
(g16
g4
NtRp321
(dp322
g19
S'test'
p323
sg21
S'foo'
p324
sg14
I10
sbsI11
g2
(g16
g4
NtRp325
(dp326
g19
S'test'
p327
sg21
S'foo'
p328
sg14
I11
sbsI12
g2
(g16
g4
NtRp329
(dp330
g19
S'test'
p331
sg21
S'foo'
p332
sg14
I12
sbsI13
g2
(g16
g4
NtRp333
(dp334
g19
S'test'
p335
sg21
S'foo'
p336
sg14
I13
sbsI14
g2
(g16
g4
NtRp337
(dp338
g19
S'test'
p339
sg21
S'foo'
p340
sg14
I14
sbsI15
g2
(g16
g4
NtRp341
(dp342
g19
S'test'
p343
sg21
S'foo'
p344
sg14
I15
sbsI16
g2
(g16
g4
NtRp345
(dp346
g19
S'test'
p347
sg21
S'foo'
p348
sg14
I16
sbsI17
g2
(g16
g4
NtRp349
(dp350
g19
S'test'
p351
sg21
S'foo'
p352
sg14
I17
sbsI18
g2
(g16
g4
NtRp353
(dp354
g19
S'test'
p355
sg21
S'foo'
p356
sg14
I18
sbsI19
g2
(g16
g4
NtRp357
(dp358
g19
S'test'
p359
sg21
S'foo'
p360
sg14
I19
sbsI20
g2
(g16
g4
NtRp361
(dp362
g19
S'test'
p363
sg21
S'foo'
p364
sg14
I20
sbsI21
g2
(g16
g4
NtRp365
(dp366
g19
S'test'
p367
sg21
S'foo'
p368
sg14
I21
sbsI22
g2
(g16
g4
NtRp369
(dp370
g19
S'test'
p371
sg21
S'foo'
p372
sg14
I22
sbsI23
g2
(g16
g4
NtRp373
(dp374
g19
S'test'
p375
sg21
S'foo'
p376
sg14
I23
sbsI24
g2
(g16
g4
NtRp377
(dp378
g19
S'test'
p379
sg21
S'foo'
p380
sg14
I24
sbsI25
g2
(g16
g4
NtRp381
(dp382
g19
S'test'
p383
sg21
S'foo'
p384
sg14
I25
sbsI26
g2
(g16
g4
NtRp385
(dp386
g19
S'test'
p387
sg21
S'foo'
p388
sg14
I26
sbsI27
g2
(g16
g4
NtRp389
(dp390
g19
S'test'
p391
sg21
S'foo'
p392
sg14
I27
sbsI28
g2
(g16
g4
NtRp393
(dp394
g19
S'test'
p395
sg21
S'foo'
p396
sg14
I28
sbsI29
g2
(g16
g4
NtRp397
(dp398
g19
S'test'
p399
sg21
S'foo'
p400
sg14
I29
sbsI30
g2
(g16
g4
NtRp401
(dp402
g19
S'test'
p403
sg21
S'foo'
p404
sg14
I30
sbsI31
g2
(g16
g4
NtRp405
(dp406
g19
S'test'
p407
sg21
S'foo'
p408
sg14
I31
sbsI32
g2
(g16
g4
NtRp409
(dp410
g19
S'test'
p411
sg21
S'foo'
p412
sg14
I32
sbsI33
g2
(g16
g4
NtRp413
(dp414
g19
S'test'
p415
sg21
S'foo'
p416
sg14
I33
sbsI34
g2
(g16
g4
NtRp417
(dp418
g19
S'test'
p419
sg21
S'foo'
p420
sg14
I34
sbsI35
g2
(g16
g4
NtRp421
(dp422
g19
S'test'
p423
sg21
S'foo'
p424
sg14
I35
sbsI36
g2
(g16
g4
NtRp425
(dp426
g19
S'test'
p427
sg21
S'foo'
p428
sg14
I36
sbsI37
g2
(g16
g4
NtRp429
(dp430
g19
S'test'
p431
sg21
S'foo'
p432
sg14
I37
sbsI38
g2
(g16
g4
NtRp433
(dp434
g19
S'test'
p435
sg21
S'foo'
p436
sg14
I38
sbsI39
g2
(g16
g4
NtRp437
(dp438
g19
S'Iheartcats'
p439
sg21
S'password'
p440
sg14
I39
sbsI40
g2
(g16
g4
NtRp441
(dp442
g19
S'test'
p443
sg21
S'foo'
p444
sg14
I40
sbsI41
g2
(g16
g4
NtRp445
(dp446
g19
S'iheartcats'
p447
sg21
S'password'
p448
sg14
I41
sbsI42
g2
(g16
g4
NtRp449
(dp450
g19
S'test'
p451
sg21
S'foo'
p452
sg14
I42
sbsI43
g2
(g16
g4
NtRp453
(dp454
g19
S'test'
p455
sg21
S'foo'
p456
sg14
I43
sbsI44
g2
(g16
g4
NtRp457
(dp458
g19
S'test'
p459
sg21
S'foo'
p460
sg14
I44
sbsI45
g2
(g16
g4
NtRp461
(dp462
g19
S'test'
p463
sg21
S'foo'
p464
sg14
I45
sbsI46
g2
(g16
g4
NtRp465
(dp466
g19
S'test'
p467
sg21
S'foo'
p468
sg14
I46
sbsI47
g2
(g16
g4
NtRp469
(dp470
g19
S'test'
p471
sg21
S'foo'
p472
sg14
I47
sbsI48
g2
(g16
g4
NtRp473
(dp474
g19
S'test'
p475
sg21
S'foo'
p476
sg14
I48
sbsI49
g2
(g16
g4
NtRp477
(dp478
g19
S'test'
p479
sg21
S'foo'
p480
sg14
I49
sbsI50
g2
(g16
g4
NtRp481
(dp482
g19
S'test'
p483
sg21
S'foo'
p484
sg14
I50
sbsI51
g2
(g16
g4
NtRp485
(dp486
g19
S'test'
p487
sg21
S'foo'
p488
sg14
I51
sbsI52
g2
(g16
g4
NtRp489
(dp490
g19
S'test'
p491
sg21
S'foo'
p492
sg14
I52
sbsI53
g2
(g16
g4
NtRp493
(dp494
g19
S'test'
p495
sg21
S'foo'
p496
sg14
I53
sbsI54
g2
(g16
g4
NtRp497
(dp498
g19
S'test'
p499
sg21
S'foo'
p500
sg14
I54
sbsI55
g2
(g16
g4
NtRp501
(dp502
g19
S'test'
p503
sg21
S'foo'
p504
sg14
I55
sbsI56
g2
(g16
g4
NtRp505
(dp506
g19
S'test'
p507
sg21
S'foo'
p508
sg14
I56
sbsI57
g2
(g16
g4
NtRp509
(dp510
g19
S'test'
p511
sg21
S'foo'
p512
sg14
I57
sbsI58
g2
(g16
g4
NtRp513
(dp514
g19
S'test'
p515
sg21
S'foo'
p516
sg14
I58
sbsI59
g2
(g16
g4
NtRp517
(dp518
g19
S'test'
p519
sg21
S'foo'
p520
sg14
I59
sbsI60
g2
(g16
g4
NtRp521
(dp522
g19
S'test'
p523
sg21
S'foo'
p524
sg14
I60
sbsI61
g2
(g16
g4
NtRp525
(dp526
g19
S'test'
p527
sg21
S'foo'
p528
sg14
I61
sbsI62
g2
(g16
g4
NtRp529
(dp530
g19
S'test'
p531
sg21
S'foo'
p532
sg14
I62
sbsI63
g2
(g16
g4
NtRp533
(dp534
g19
S'test'
p535
sg21
S'foo'
p536
sg14
I63
sbsI64
g2
(g16
g4
NtRp537
(dp538
g19
S'test'
p539
sg21
S'foo'
p540
sg14
I64
sbsI65
g2
(g16
g4
NtRp541
(dp542
g19
S'test'
p543
sg21
S'foo'
p544
sg14
I65
sbsI66
g2
(g16
g4
NtRp545
(dp546
g19
S'test'
p547
sg21
S'foo'
p548
sg14
I66
sbsI67
g2
(g16
g4
NtRp549
(dp550
g19
S'test'
p551
sg21
S'foo'
p552
sg14
I67
sbsI68
g2
(g16
g4
NtRp553
(dp554
g19
S'test'
p555
sg21
S'foo'
p556
sg14
I68
sbsI69
g2
(g16
g4
NtRp557
(dp558
g19
S'test'
p559
sg21
S'foo'
p560
sg14
I69
sbsI70
g2
(g16
g4
NtRp561
(dp562
g19
S'test'
p563
sg21
S'foo'
p564
sg14
I70
sbsI71
g2
(g16
g4
NtRp565
(dp566
g19
S'test'
p567
sg21
S'foo'
p568
sg14
I71
sbsI72
g2
(g16
g4
NtRp569
(dp570
g19
S'test'
p571
sg21
S'foo'
p572
sg14
I72
sbsI73
g2
(g16
g4
NtRp573
(dp574
g19
S'test'
p575
sg21
S'foo'
p576
sg14
I73
sbsI74
g2
(g16
g4
NtRp577
(dp578
g19
S'test'
p579
sg21
S'foo'
p580
sg14
I74
sbsI75
g2
(g16
g4
NtRp581
(dp582
g19
S'test'
p583
sg21
S'foo'
p584
sg14
I75
sbsI76
g2
(g16
g4
NtRp585
(dp586
g19
S'test'
p587
sg21
S'foo'
p588
sg14
I76
sbsI77
g2
(g16
g4
NtRp589
(dp590
g19
S'test'
p591
sg21
S'foo'
p592
sg14
I77
sbsI78
g2
(g16
g4
NtRp593
(dp594
g19
S'test'
p595
sg21
S'foo'
p596
sg14
I78
sbsI79
g2
(g16
g4
NtRp597
(dp598
g19
S'test'
p599
sg21
S'foo'
p600
sg14
I79
sbsI80
g2
(g16
g4
NtRp601
(dp602
g19
S'test'
p603
sg21
S'foo'
p604
sg14
I80
sbsI81
g2
(g16
g4
NtRp605
(dp606
g19
S'test'
p607
sg21
S'foo'
p608
sg14
I81
sbsI82
g2
(g16
g4
NtRp609
(dp610
g19
S'test'
p611
sg21
S'foo'
p612
sg14
I82
sbsI83
g2
(g16
g4
NtRp613
(dp614
g19
S'test'
p615
sg21
S'foo'
p616
sg14
I83
sbsI84
g17
sI85
g2
(g16
g4
NtRp617
(dp618
g19
S'test'
p619
sg21
S'foo'
p620
sg14
I85
sbsI86
g2
(g16
g4
NtRp621
(dp622
g19
S'test'
p623
sg21
S'foo'
p624
sg14
I86
sbsI87
g26
sI88
g83
sI89
g94
sI90
g2
(g16
g4
NtRp625
(dp626
g19
S'test'
p627
sg21
S'foo'
p628
sg14
I90
sbsI91
g2
(g16
g4
NtRp629
(dp630
g19
S'test'
p631
sg21
S'foo'
p632
sg14
I91
sbsI92
g33
sI93
g2
(g16
g4
NtRp633
(dp634
g19
S'test'
p635
sg21
S'foo'
p636
sg14
I93
sbsI94
g112
sI95
g2
(g16
g4
NtRp637
(dp638
g19
S'test'
p639
sg21
S'foo'
p640
sg14
I95
sbsI96
g2
(g16
g4
NtRp641
(dp642
g19
S'test'
p643
sg21
S'foo'
p644
sg14
I96
sbsI97
g40
sI98
g2
(g16
g4
NtRp645
(dp646
g19
S'test'
p647
sg21
S'foo'
p648
sg14
I98
sbsI99
g130
sI100
g2
(g16
g4
NtRp649
(dp650
g19
S'test'
p651
sg21
S'foo'
p652
sg14
I100
sbsI101
g2
(g16
g4
NtRp653
(dp654
g19
S'test'
p655
sg21
S'foo'
p656
sg14
I101
sbsI102
g47
sI103
g2
(g16
g4
NtRp657
(dp658
g19
S'test'
p659
sg21
S'foo'
p660
sg14
I103
sbsI104
g148
sI105
g2
(g16
g4
NtRp661
(dp662
g19
S'test'
p663
sg21
S'foo'
p664
sg14
I105
sbsI106
g2
(g16
g4
NtRp665
(dp666
g19
S'test'
p667
sg21
S'foo'
p668
sg14
I106
sbsI107
g54
sI108
g2
(g16
g4
NtRp669
(dp670
g19
S'test'
p671
sg21
S'foo'
p672
sg14
I108
sbsI109
g166
sI110
g177
sI111
g188
sI112
g2
(g16
g4
NtRp673
(dp674
g19
S'test'
p675
sg21
S'foo'
p676
sg14
I112
sbsI113
g2
(g16
g4
NtRp677
(dp678
g19
S'test'
p679
sg21
S'foo'
p680
sg14
I113
sbsI114
g61
sI115
g2
(g16
g4
NtRp681
(dp682
g19
S'test'
p683
sg21
S'foo'
p684
sg14
I115
sbsI116
g206
sI117
g2
(g16
g4
NtRp685
(dp686
g19
S'catsAreCool'
p687
sg21
S'password'
p688
sg14
I117
sbsI118
g2
(g16
g4
NtRp689
(dp690
g19
S'test'
p691
sg21
S'foo'
p692
sg14
I118
sbsI119
g68
sI120
g224
sI121
g235
sI122
g246
sI123
g257
sI124
g268
s(dp693
g439
g437
sg447
g445
sg687
g685
sg283
g268
sg287
g285
sg303
g301
stp694
.