((dp1
I0
ccopy_reg
_reconstructor
p2
(cmeeplib
Thread
p3
c__builtin__
object
p4
NtRp5
(dp6
S'posts'
p7
(dp8
I0
g2
(cmeeplib
Message
p9
g4
NtRp10
(dp11
S'post'
p12
S'This is my message!'
p13
sS'id'
p14
I0
sS'author'
p15
g2
(cmeeplib
User
p16
g4
NtRp17
(dp18
S'username'
p19
S'test'
p20
sS'password'
p21
S'foo'
p22
sg14
I0
sbsbsI1
g2
(g9
g4
NtRp23
(dp24
g12
S'here is a reply!'
p25
sg14
I1
sg15
g2
(g16
g4
NtRp26
(dp27
g19
S'george'
p28
sg21
S'foo'
p29
sg14
I5
sbsbsI2
g2
(g9
g4
NtRp30
(dp31
g12
S'blah bah blah'
p32
sg14
I2
sg15
g2
(g16
g4
NtRp33
(dp34
g19
S'test'
p35
sg21
S'foo'
p36
sg14
I12
sbsbssg14
I0
sS'title'
p37
S'Test Thread'
p38
sbsI1
g2
(g3
g4
NtRp39
(dp40
g7
(dp41
I0
g2
(g9
g4
NtRp42
(dp43
g12
S'This is my message!'
p44
sg14
I0
sg15
g2
(g16
g4
NtRp45
(dp46
g19
S'test'
p47
sg21
S'foo'
p48
sg14
I3
sbsbsI1
g2
(g9
g4
NtRp49
(dp50
g12
S'replytest'
p51
sg14
I1
sg15
g2
(g16
g4
NtRp52
(dp53
g19
S'test'
p54
sg21
S'foo'
p55
sg14
I7
sbsbsI2
g2
(g9
g4
NtRp56
(dp57
g12
S'replytest'
p58
sg14
I2
sg15
g2
(g16
g4
NtRp59
(dp60
g19
S'test'
p61
sg21
S'foo'
p62
sg14
I8
sbsbsI3
g2
(g9
g4
NtRp63
(dp64
g12
S'replytest'
p65
sg14
I3
sg15
g2
(g16
g4
NtRp66
(dp67
g19
S'test'
p68
sg21
S'foo'
p69
sg14
I9
sbsbsI4
g2
(g9
g4
NtRp70
(dp71
g12
S'replytest'
p72
sg14
I4
sg15
g2
(g16
g4
NtRp73
(dp74
g19
S'test'
p75
sg21
S'foo'
p76
sg14
I10
sbsbsI5
g2
(g9
g4
NtRp77
(dp78
g12
S'replytest'
p79
sg14
I5
sg15
g2
(g16
g4
NtRp80
(dp81
g19
S'test'
p82
sg21
S'foo'
p83
sg14
I11
sbsbssg14
I1
sg37
S'Test Thread'
p84
sbsI2
g2
(g3
g4
NtRp85
(dp86
g7
(dp87
I0
g2
(g9
g4
NtRp88
(dp89
g12
S'This is my message!'
p90
sg14
I0
sg15
g2
(g16
g4
NtRp91
(dp92
g19
S'test'
p93
sg21
S'foo'
p94
sg14
I6
sbsbssg14
I2
sg37
S'Test Thread'
p95
sbsI3
g2
(g3
g4
NtRp96
(dp97
g7
(dp98
I0
g2
(g9
g4
NtRp99
(dp100
g12
S'This is my message!'
p101
sg14
I0
sg15
g52
sbssg14
I3
sg37
S'Test Thread'
p102
sbsI4
g2
(g3
g4
NtRp103
(dp104
g7
(dp105
I0
g2
(g9
g4
NtRp106
(dp107
g12
S'This is my message!'
p108
sg14
I0
sg15
g59
sbssg14
I4
sg37
S'Test Thread'
p109
sbsI5
g2
(g3
g4
NtRp110
(dp111
g7
(dp112
I0
g2
(g9
g4
NtRp113
(dp114
g12
S'This is my message!'
p115
sg14
I0
sg15
g66
sbssg14
I5
sg37
S'Test Thread'
p116
sbsI6
g2
(g3
g4
NtRp117
(dp118
g7
(dp119
I0
g2
(g9
g4
NtRp120
(dp121
g12
S'This is my message!'
p122
sg14
I0
sg15
g73
sbssg14
I6
sg37
S'Test Thread'
p123
sbsI7
g2
(g3
g4
NtRp124
(dp125
g7
(dp126
I0
g2
(g9
g4
NtRp127
(dp128
g12
S'This is my message!'
p129
sg14
I0
sg15
g80
sbssg14
I7
sg37
S'Test Thread'
p130
sbs(dp131
I0
g17
sI1
g2
(g16
g4
NtRp132
(dp133
g19
S'teet'
p134
sg21
S'test'
p135
sg14
I1
sbsI2
g2
(g16
g4
NtRp136
(dp137
g19
S'test'
p138
sg21
S'foo'
p139
sg14
I2
sbsI3
g45
sI4
g2
(g16
g4
NtRp140
(dp141
g19
S'test'
p142
sg21
S'foo'
p143
sg14
I4
sbsI5
g26
sI6
g91
sI7
g52
sI8
g59
sI9
g66
sI10
g73
sI11
g80
sI12
g33
s(dp144
g20
g33
sg134
g132
sg28
g26
stp145
.