((dp1
I0
ccopy_reg
_reconstructor
p2
(cmeeplib
Thread
p3
c__builtin__
object
p4
NtRp5
(dp6
S'posts'
p7
(dp8
I0
g2
(cmeeplib
Message
p9
g4
NtRp10
(dp11
S'post'
p12
S'this is my message'
p13
sS'id'
p14
I0
sS'author'
p15
g2
(cmeeplib
User
p16
g4
NtRp17
(dp18
S'username'
p19
S'test'
p20
sS'password'
p21
S'foo'
p22
sg14
I84
sbsbsI1
g2
(g9
g4
NtRp23
(dp24
g12
S'Kittens are pretty awesome'
p25
sg14
I1
sg15
g2
(g16
g4
NtRp26
(dp27
g19
S'test'
p28
sg21
S'foo'
p29
sg14
I87
sbsbsI2
g2
(g9
g4
NtRp30
(dp31
g12
S'Kittens are pretty awesome'
p32
sg14
I2
sg15
g2
(g16
g4
NtRp33
(dp34
g19
S'test'
p35
sg21
S'foo'
p36
sg14
I92
sbsbsI3
g2
(g9
g4
NtRp37
(dp38
g12
S'Kittens are pretty awesome'
p39
sg14
I3
sg15
g2
(g16
g4
NtRp40
(dp41
g19
S'test'
p42
sg21
S'foo'
p43
sg14
I97
sbsbsI4
g2
(g9
g4
NtRp44
(dp45
g12
S'Kittens are pretty awesome'
p46
sg14
I4
sg15
g2
(g16
g4
NtRp47
(dp48
g19
S'test'
p49
sg21
S'foo'
p50
sg14
I102
sbsbsI5
g2
(g9
g4
NtRp51
(dp52
g12
S'Kittens are pretty awesome'
p53
sg14
I5
sg15
g2
(g16
g4
NtRp54
(dp55
g19
S'test'
p56
sg21
S'foo'
p57
sg14
I107
sbsbsI6
g2
(g9
g4
NtRp58
(dp59
g12
S'Kittens are pretty awesome'
p60
sg14
I6
sg15
g2
(g16
g4
NtRp61
(dp62
g19
S'test'
p63
sg21
S'foo'
p64
sg14
I114
sbsbsI7
g2
(g9
g4
NtRp65
(dp66
g12
S'Kittens are pretty awesome'
p67
sg14
I7
sg15
g2
(g16
g4
NtRp68
(dp69
g19
S'test'
p70
sg21
S'foo'
p71
sg14
I119
sbsbssg14
I0
sS'title'
p72
S'test title FOO'
p73
sbsI1
g2
(g3
g4
NtRp74
(dp75
g7
(dp76
I0
g2
(g9
g4
NtRp77
(dp78
g12
S'KITTENS!'
p79
sg14
I0
sg15
g26
sbsI1
g2
(g9
g4
NtRp80
(dp81
g12
S'YAY KITTENS'
p82
sg14
I1
sg15
g2
(g16
g4
NtRp83
(dp84
g19
S'test'
p85
sg21
S'foo'
p86
sg14
I88
sbsbssg14
I1
sg72
S'foo'
p87
sbsI2
g2
(g3
g4
NtRp88
(dp89
g7
(dp90
I0
g2
(g9
g4
NtRp91
(dp92
g12
S'this is my message'
p93
sg14
I0
sg15
g2
(g16
g4
NtRp94
(dp95
g19
S'test'
p96
sg21
S'foo'
p97
sg14
I89
sbsbssg14
I2
sg72
S'test title FOO'
p98
sbsI3
g2
(g3
g4
NtRp99
(dp100
g7
(dp101
I0
g2
(g9
g4
NtRp102
(dp103
g12
S'KITTENS!'
p104
sg14
I0
sg15
g33
sbssg14
I3
sg72
S'foo'
p105
sbsI4
g2
(g3
g4
NtRp106
(dp107
g7
(dp108
I0
g2
(g9
g4
NtRp109
(dp110
g12
S'this is my message'
p111
sg14
I0
sg15
g2
(g16
g4
NtRp112
(dp113
g19
S'test'
p114
sg21
S'foo'
p115
sg14
I94
sbsbssg14
I4
sg72
S'test title FOO'
p116
sbsI5
g2
(g3
g4
NtRp117
(dp118
g7
(dp119
I0
g2
(g9
g4
NtRp120
(dp121
g12
S'KITTENS!'
p122
sg14
I0
sg15
g40
sbssg14
I5
sg72
S'foo'
p123
sbsI6
g2
(g3
g4
NtRp124
(dp125
g7
(dp126
I0
g2
(g9
g4
NtRp127
(dp128
g12
S'this is my message'
p129
sg14
I0
sg15
g2
(g16
g4
NtRp130
(dp131
g19
S'test'
p132
sg21
S'foo'
p133
sg14
I99
sbsbssg14
I6
sg72
S'test title FOO'
p134
sbsI7
g2
(g3
g4
NtRp135
(dp136
g7
(dp137
I0
g2
(g9
g4
NtRp138
(dp139
g12
S'KITTENS!'
p140
sg14
I0
sg15
g47
sbssg14
I7
sg72
S'foo'
p141
sbsI8
g2
(g3
g4
NtRp142
(dp143
g7
(dp144
I0
g2
(g9
g4
NtRp145
(dp146
g12
S'this is my message'
p147
sg14
I0
sg15
g2
(g16
g4
NtRp148
(dp149
g19
S'test'
p150
sg21
S'foo'
p151
sg14
I104
sbsbssg14
I8
sg72
S'test title FOO'
p152
sbsI9
g2
(g3
g4
NtRp153
(dp154
g7
(dp155
I0
g2
(g9
g4
NtRp156
(dp157
g12
S'KITTENS!'
p158
sg14
I0
sg15
g54
sbssg14
I9
sg72
S'foo'
p159
sbsI10
g2
(g3
g4
NtRp160
(dp161
g7
(dp162
I0
g2
(g9
g4
NtRp163
(dp164
g12
S'this is my message'
p165
sg14
I0
sg15
g2
(g16
g4
NtRp166
(dp167
g19
S'test'
p168
sg21
S'foo'
p169
sg14
I109
sbsbssg14
I10
sg72
S'test title FOO'
p170
sbsI11
g2
(g3
g4
NtRp171
(dp172
g7
(dp173
I0
g2
(g9
g4
NtRp174
(dp175
g12
S'this is my message'
p176
sg14
I0
sg15
g2
(g16
g4
NtRp177
(dp178
g19
S'test'
p179
sg21
S'foo'
p180
sg14
I110
sbsbssg14
I11
sg72
S'test title FOO'
p181
sbsI12
g2
(g3
g4
NtRp182
(dp183
g7
(dp184
I0
g2
(g9
g4
NtRp185
(dp186
g12
S'this is my message'
p187
sg14
I0
sg15
g2
(g16
g4
NtRp188
(dp189
g19
S'test'
p190
sg21
S'foo'
p191
sg14
I111
sbsbssg14
I12
sg72
S'test title FOO'
p192
sbsI13
g2
(g3
g4
NtRp193
(dp194
g7
(dp195
I0
g2
(g9
g4
NtRp196
(dp197
g12
S'KITTENS!'
p198
sg14
I0
sg15
g61
sbssg14
I13
sg72
S'foo'
p199
sbsI14
g2
(g3
g4
NtRp200
(dp201
g7
(dp202
I0
g2
(g9
g4
NtRp203
(dp204
g12
S'this is my message'
p205
sg14
I0
sg15
g2
(g16
g4
NtRp206
(dp207
g19
S'test'
p208
sg21
S'foo'
p209
sg14
I116
sbsbssg14
I14
sg72
S'test title FOO'
p210
sbsI15
g2
(g3
g4
NtRp211
(dp212
g7
(dp213
I0
g2
(g9
g4
NtRp214
(dp215
g12
S'KITTENS!'
p216
sg14
I0
sg15
g68
sbssg14
I15
sg72
S'foo'
p217
sbsI16
g2
(g3
g4
NtRp218
(dp219
g7
(dp220
I0
g2
(g9
g4
NtRp221
(dp222
g12
S'this is my message'
p223
sg14
I0
sg15
g2
(g16
g4
NtRp224
(dp225
g19
S'test'
p226
sg21
S'foo'
p227
sg14
I120
sbsbssg14
I16
sg72
S'test title FOO'
p228
sbsI17
g2
(g3
g4
NtRp229
(dp230
g7
(dp231
I0
g2
(g9
g4
NtRp232
(dp233
g12
S'this is my message'
p234
sg14
I0
sg15
g2
(g16
g4
NtRp235
(dp236
g19
S'test'
p237
sg21
S'foo'
p238
sg14
I121
sbsbssg14
I17
sg72
S'test title FOO'
p239
sbsI18
g2
(g3
g4
NtRp240
(dp241
g7
(dp242
I0
g2
(g9
g4
NtRp243
(dp244
g12
S'this is my message'
p245
sg14
I0
sg15
g2
(g16
g4
NtRp246
(dp247
g19
S'test'
p248
sg21
S'foo'
p249
sg14
I122
sbsbssg14
I18
sg72
S'test title FOO'
p250
sbsI19
g2
(g3
g4
NtRp251
(dp252
g7
(dp253
I0
g2
(g9
g4
NtRp254
(dp255
g12
S'this is my message'
p256
sg14
I0
sg15
g2
(g16
g4
NtRp257
(dp258
g19
S'test'
p259
sg21
S'foo'
p260
sg14
I123
sbsbssg14
I19
sg72
S'test title FOO'
p261
sbs(dp262
I0
g2
(g16
g4
NtRp263
(dp264
g19
S'test'
p265
sg21
S'foo'
p266
sg14
I0
sbsI1
g2
(g16
g4
NtRp267
(dp268
g19
S'teet'
p269
sg21
S'test'
p270
sg14
I1
sbsI2
g2
(g16
g4
NtRp271
(dp272
g19
S'test'
p273
sg21
S'foo'
p274
sg14
I2
sbsI3
g2
(g16
g4
NtRp275
(dp276
g19
S'test'
p277
sg21
S'foo'
p278
sg14
I3
sbsI4
g2
(g16
g4
NtRp279
(dp280
g19
S'test'
p281
sg21
S'foo'
p282
sg14
I4
sbsI5
g2
(g16
g4
NtRp283
(dp284
g19
S'george'
p285
sg21
S'foo'
p286
sg14
I5
sbsI6
g2
(g16
g4
NtRp287
(dp288
g19
S'test'
p289
sg21
S'foo'
p290
sg14
I6
sbsI7
g2
(g16
g4
NtRp291
(dp292
g19
S'test'
p293
sg21
S'foo'
p294
sg14
I7
sbsI8
g2
(g16
g4
NtRp295
(dp296
g19
S'test'
p297
sg21
S'foo'
p298
sg14
I8
sbsI9
g2
(g16
g4
NtRp299
(dp300
g19
S'test'
p301
sg21
S'foo'
p302
sg14
I9
sbsI10
g2
(g16
g4
NtRp303
(dp304
g19
S'test'
p305
sg21
S'foo'
p306
sg14
I10
sbsI11
g2
(g16
g4
NtRp307
(dp308
g19
S'test'
p309
sg21
S'foo'
p310
sg14
I11
sbsI12
g2
(g16
g4
NtRp311
(dp312
g19
S'test'
p313
sg21
S'foo'
p314
sg14
I12
sbsI13
g2
(g16
g4
NtRp315
(dp316
g19
S'test'
p317
sg21
S'foo'
p318
sg14
I13
sbsI14
g2
(g16
g4
NtRp319
(dp320
g19
S'test'
p321
sg21
S'foo'
p322
sg14
I14
sbsI15
g2
(g16
g4
NtRp323
(dp324
g19
S'test'
p325
sg21
S'foo'
p326
sg14
I15
sbsI16
g2
(g16
g4
NtRp327
(dp328
g19
S'test'
p329
sg21
S'foo'
p330
sg14
I16
sbsI17
g2
(g16
g4
NtRp331
(dp332
g19
S'test'
p333
sg21
S'foo'
p334
sg14
I17
sbsI18
g2
(g16
g4
NtRp335
(dp336
g19
S'test'
p337
sg21
S'foo'
p338
sg14
I18
sbsI19
g2
(g16
g4
NtRp339
(dp340
g19
S'test'
p341
sg21
S'foo'
p342
sg14
I19
sbsI20
g2
(g16
g4
NtRp343
(dp344
g19
S'test'
p345
sg21
S'foo'
p346
sg14
I20
sbsI21
g2
(g16
g4
NtRp347
(dp348
g19
S'test'
p349
sg21
S'foo'
p350
sg14
I21
sbsI22
g2
(g16
g4
NtRp351
(dp352
g19
S'test'
p353
sg21
S'foo'
p354
sg14
I22
sbsI23
g2
(g16
g4
NtRp355
(dp356
g19
S'test'
p357
sg21
S'foo'
p358
sg14
I23
sbsI24
g2
(g16
g4
NtRp359
(dp360
g19
S'test'
p361
sg21
S'foo'
p362
sg14
I24
sbsI25
g2
(g16
g4
NtRp363
(dp364
g19
S'test'
p365
sg21
S'foo'
p366
sg14
I25
sbsI26
g2
(g16
g4
NtRp367
(dp368
g19
S'test'
p369
sg21
S'foo'
p370
sg14
I26
sbsI27
g2
(g16
g4
NtRp371
(dp372
g19
S'test'
p373
sg21
S'foo'
p374
sg14
I27
sbsI28
g2
(g16
g4
NtRp375
(dp376
g19
S'test'
p377
sg21
S'foo'
p378
sg14
I28
sbsI29
g2
(g16
g4
NtRp379
(dp380
g19
S'test'
p381
sg21
S'foo'
p382
sg14
I29
sbsI30
g2
(g16
g4
NtRp383
(dp384
g19
S'test'
p385
sg21
S'foo'
p386
sg14
I30
sbsI31
g2
(g16
g4
NtRp387
(dp388
g19
S'test'
p389
sg21
S'foo'
p390
sg14
I31
sbsI32
g2
(g16
g4
NtRp391
(dp392
g19
S'test'
p393
sg21
S'foo'
p394
sg14
I32
sbsI33
g2
(g16
g4
NtRp395
(dp396
g19
S'test'
p397
sg21
S'foo'
p398
sg14
I33
sbsI34
g2
(g16
g4
NtRp399
(dp400
g19
S'test'
p401
sg21
S'foo'
p402
sg14
I34
sbsI35
g2
(g16
g4
NtRp403
(dp404
g19
S'test'
p405
sg21
S'foo'
p406
sg14
I35
sbsI36
g2
(g16
g4
NtRp407
(dp408
g19
S'test'
p409
sg21
S'foo'
p410
sg14
I36
sbsI37
g2
(g16
g4
NtRp411
(dp412
g19
S'test'
p413
sg21
S'foo'
p414
sg14
I37
sbsI38
g2
(g16
g4
NtRp415
(dp416
g19
S'test'
p417
sg21
S'foo'
p418
sg14
I38
sbsI39
g2
(g16
g4
NtRp419
(dp420
g19
S'Iheartcats'
p421
sg21
S'password'
p422
sg14
I39
sbsI40
g2
(g16
g4
NtRp423
(dp424
g19
S'test'
p425
sg21
S'foo'
p426
sg14
I40
sbsI41
g2
(g16
g4
NtRp427
(dp428
g19
S'iheartcats'
p429
sg21
S'password'
p430
sg14
I41
sbsI42
g2
(g16
g4
NtRp431
(dp432
g19
S'test'
p433
sg21
S'foo'
p434
sg14
I42
sbsI43
g2
(g16
g4
NtRp435
(dp436
g19
S'test'
p437
sg21
S'foo'
p438
sg14
I43
sbsI44
g2
(g16
g4
NtRp439
(dp440
g19
S'test'
p441
sg21
S'foo'
p442
sg14
I44
sbsI45
g2
(g16
g4
NtRp443
(dp444
g19
S'test'
p445
sg21
S'foo'
p446
sg14
I45
sbsI46
g2
(g16
g4
NtRp447
(dp448
g19
S'test'
p449
sg21
S'foo'
p450
sg14
I46
sbsI47
g2
(g16
g4
NtRp451
(dp452
g19
S'test'
p453
sg21
S'foo'
p454
sg14
I47
sbsI48
g2
(g16
g4
NtRp455
(dp456
g19
S'test'
p457
sg21
S'foo'
p458
sg14
I48
sbsI49
g2
(g16
g4
NtRp459
(dp460
g19
S'test'
p461
sg21
S'foo'
p462
sg14
I49
sbsI50
g2
(g16
g4
NtRp463
(dp464
g19
S'test'
p465
sg21
S'foo'
p466
sg14
I50
sbsI51
g2
(g16
g4
NtRp467
(dp468
g19
S'test'
p469
sg21
S'foo'
p470
sg14
I51
sbsI52
g2
(g16
g4
NtRp471
(dp472
g19
S'test'
p473
sg21
S'foo'
p474
sg14
I52
sbsI53
g2
(g16
g4
NtRp475
(dp476
g19
S'test'
p477
sg21
S'foo'
p478
sg14
I53
sbsI54
g2
(g16
g4
NtRp479
(dp480
g19
S'test'
p481
sg21
S'foo'
p482
sg14
I54
sbsI55
g2
(g16
g4
NtRp483
(dp484
g19
S'test'
p485
sg21
S'foo'
p486
sg14
I55
sbsI56
g2
(g16
g4
NtRp487
(dp488
g19
S'test'
p489
sg21
S'foo'
p490
sg14
I56
sbsI57
g2
(g16
g4
NtRp491
(dp492
g19
S'test'
p493
sg21
S'foo'
p494
sg14
I57
sbsI58
g2
(g16
g4
NtRp495
(dp496
g19
S'test'
p497
sg21
S'foo'
p498
sg14
I58
sbsI59
g2
(g16
g4
NtRp499
(dp500
g19
S'test'
p501
sg21
S'foo'
p502
sg14
I59
sbsI60
g2
(g16
g4
NtRp503
(dp504
g19
S'test'
p505
sg21
S'foo'
p506
sg14
I60
sbsI61
g2
(g16
g4
NtRp507
(dp508
g19
S'test'
p509
sg21
S'foo'
p510
sg14
I61
sbsI62
g2
(g16
g4
NtRp511
(dp512
g19
S'test'
p513
sg21
S'foo'
p514
sg14
I62
sbsI63
g2
(g16
g4
NtRp515
(dp516
g19
S'test'
p517
sg21
S'foo'
p518
sg14
I63
sbsI64
g2
(g16
g4
NtRp519
(dp520
g19
S'test'
p521
sg21
S'foo'
p522
sg14
I64
sbsI65
g2
(g16
g4
NtRp523
(dp524
g19
S'test'
p525
sg21
S'foo'
p526
sg14
I65
sbsI66
g2
(g16
g4
NtRp527
(dp528
g19
S'test'
p529
sg21
S'foo'
p530
sg14
I66
sbsI67
g2
(g16
g4
NtRp531
(dp532
g19
S'test'
p533
sg21
S'foo'
p534
sg14
I67
sbsI68
g2
(g16
g4
NtRp535
(dp536
g19
S'test'
p537
sg21
S'foo'
p538
sg14
I68
sbsI69
g2
(g16
g4
NtRp539
(dp540
g19
S'test'
p541
sg21
S'foo'
p542
sg14
I69
sbsI70
g2
(g16
g4
NtRp543
(dp544
g19
S'test'
p545
sg21
S'foo'
p546
sg14
I70
sbsI71
g2
(g16
g4
NtRp547
(dp548
g19
S'test'
p549
sg21
S'foo'
p550
sg14
I71
sbsI72
g2
(g16
g4
NtRp551
(dp552
g19
S'test'
p553
sg21
S'foo'
p554
sg14
I72
sbsI73
g2
(g16
g4
NtRp555
(dp556
g19
S'test'
p557
sg21
S'foo'
p558
sg14
I73
sbsI74
g2
(g16
g4
NtRp559
(dp560
g19
S'test'
p561
sg21
S'foo'
p562
sg14
I74
sbsI75
g2
(g16
g4
NtRp563
(dp564
g19
S'test'
p565
sg21
S'foo'
p566
sg14
I75
sbsI76
g2
(g16
g4
NtRp567
(dp568
g19
S'test'
p569
sg21
S'foo'
p570
sg14
I76
sbsI77
g2
(g16
g4
NtRp571
(dp572
g19
S'test'
p573
sg21
S'foo'
p574
sg14
I77
sbsI78
g2
(g16
g4
NtRp575
(dp576
g19
S'test'
p577
sg21
S'foo'
p578
sg14
I78
sbsI79
g2
(g16
g4
NtRp579
(dp580
g19
S'test'
p581
sg21
S'foo'
p582
sg14
I79
sbsI80
g2
(g16
g4
NtRp583
(dp584
g19
S'test'
p585
sg21
S'foo'
p586
sg14
I80
sbsI81
g2
(g16
g4
NtRp587
(dp588
g19
S'test'
p589
sg21
S'foo'
p590
sg14
I81
sbsI82
g2
(g16
g4
NtRp591
(dp592
g19
S'test'
p593
sg21
S'foo'
p594
sg14
I82
sbsI83
g2
(g16
g4
NtRp595
(dp596
g19
S'test'
p597
sg21
S'foo'
p598
sg14
I83
sbsI84
g17
sI85
g2
(g16
g4
NtRp599
(dp600
g19
S'test'
p601
sg21
S'foo'
p602
sg14
I85
sbsI86
g2
(g16
g4
NtRp603
(dp604
g19
S'test'
p605
sg21
S'foo'
p606
sg14
I86
sbsI87
g26
sI88
g83
sI89
g94
sI90
g2
(g16
g4
NtRp607
(dp608
g19
S'test'
p609
sg21
S'foo'
p610
sg14
I90
sbsI91
g2
(g16
g4
NtRp611
(dp612
g19
S'test'
p613
sg21
S'foo'
p614
sg14
I91
sbsI92
g33
sI93
g2
(g16
g4
NtRp615
(dp616
g19
S'test'
p617
sg21
S'foo'
p618
sg14
I93
sbsI94
g112
sI95
g2
(g16
g4
NtRp619
(dp620
g19
S'test'
p621
sg21
S'foo'
p622
sg14
I95
sbsI96
g2
(g16
g4
NtRp623
(dp624
g19
S'test'
p625
sg21
S'foo'
p626
sg14
I96
sbsI97
g40
sI98
g2
(g16
g4
NtRp627
(dp628
g19
S'test'
p629
sg21
S'foo'
p630
sg14
I98
sbsI99
g130
sI100
g2
(g16
g4
NtRp631
(dp632
g19
S'test'
p633
sg21
S'foo'
p634
sg14
I100
sbsI101
g2
(g16
g4
NtRp635
(dp636
g19
S'test'
p637
sg21
S'foo'
p638
sg14
I101
sbsI102
g47
sI103
g2
(g16
g4
NtRp639
(dp640
g19
S'test'
p641
sg21
S'foo'
p642
sg14
I103
sbsI104
g148
sI105
g2
(g16
g4
NtRp643
(dp644
g19
S'test'
p645
sg21
S'foo'
p646
sg14
I105
sbsI106
g2
(g16
g4
NtRp647
(dp648
g19
S'test'
p649
sg21
S'foo'
p650
sg14
I106
sbsI107
g54
sI108
g2
(g16
g4
NtRp651
(dp652
g19
S'test'
p653
sg21
S'foo'
p654
sg14
I108
sbsI109
g166
sI110
g177
sI111
g188
sI112
g2
(g16
g4
NtRp655
(dp656
g19
S'test'
p657
sg21
S'foo'
p658
sg14
I112
sbsI113
g2
(g16
g4
NtRp659
(dp660
g19
S'test'
p661
sg21
S'foo'
p662
sg14
I113
sbsI114
g61
sI115
g2
(g16
g4
NtRp663
(dp664
g19
S'test'
p665
sg21
S'foo'
p666
sg14
I115
sbsI116
g206
sI117
g2
(g16
g4
NtRp667
(dp668
g19
S'catsAreCool'
p669
sg21
S'password'
p670
sg14
I117
sbsI118
g2
(g16
g4
NtRp671
(dp672
g19
S'test'
p673
sg21
S'foo'
p674
sg14
I118
sbsI119
g68
sI120
g224
sI121
g235
sI122
g246
sI123
g257
s(dp675
g429
g427
sg421
g419
sg669
g667
sg265
g257
sg269
g267
sg285
g283
stp676
.